; Function Attrs: nounwind sspstrong uwtable
define hidden i64 @rb_str_locktmp_ensure(i64 noundef %0, ptr noundef %1, i64 noundef %2) local_unnamed_addr #1 {
  %4 = icmp eq i64 %0, 0
  %5 = and i64 %0, 7
  %6 = icmp ne i64 %5, 0
  %7 = or i1 %4, %6
  br i1 %7, label %rb_str_locktmp.exit, label %RB_FL_ABLE.exit.i.i

RB_FL_ABLE.exit.i.i:                              ; preds = %3
  %8 = inttoptr i64 %0 to ptr
  %9 = load i64, ptr %8, align 8, !tbaa !7
  %10 = and i64 %9, 31
  %.not.i.i = icmp eq i64 %10, 27
  %11 = and i64 %9, 524288
  %.not.i = icmp eq i64 %11, 0
  %or.cond.i = or i1 %.not.i.i, %.not.i
  br i1 %or.cond.i, label %RB_FL_ABLE.exit.i3.i, label %12

12:                                               ; preds = %RB_FL_ABLE.exit.i.i
  %13 = load i64, ptr @rb_eRuntimeError, align 8, !tbaa !26
  tail call void (i64, ptr, ...) @rb_raise(i64 noundef %13, ptr noundef nonnull @.str.14) #32
  unreachable

RB_FL_ABLE.exit.i3.i:                             ; preds = %RB_FL_ABLE.exit.i.i
  br i1 %.not.i.i, label %rb_str_locktmp.exit, label %14

14:                                               ; preds = %RB_FL_ABLE.exit.i3.i
  %15 = or i64 %9, 524288
  store i64 %15, ptr %8, align 8, !tbaa !7
  br label %rb_str_locktmp.exit

rb_str_locktmp.exit:                              ; preds = %3, %RB_FL_ABLE.exit.i3.i, %14
  %16 = tail call i64 @rb_ensure(ptr noundef %1, i64 noundef %2, ptr noundef nonnull @rb_str_unlocktmp, i64 noundef %0) #29
  ret i64 %16
}